; Function Attrs: mustprogress nofree norecurse nosync nounwind memory(read, argmem: readwrite, inaccessiblemem: none) uwtable
define noundef zeroext i1 @_ZN3gmx8internal34AnalysisNeighborhoodPairSearchImpl10isExcludedEi(ptr noundef nonnull align 8 captures(none) dereferenceable(140) %0, i32 noundef %1) local_unnamed_addr #27 align 2 {
  %3 = getelementptr inbounds nuw i8, ptr %0, i64 40
  %4 = getelementptr inbounds nuw i8, ptr %0, i64 48
  %.sroa.0.0.copyload.i.i = load ptr, ptr %3, align 8
  %5 = load ptr, ptr %4, align 8, !tbaa !181
  %6 = ptrtoint ptr %5 to i64
  %7 = ptrtoint ptr %.sroa.0.0.copyload.i.i to i64
  %8 = sub i64 %6, %7
  %9 = lshr exact i64 %8, 2
  %10 = trunc i64 %9 to i32
  %11 = getelementptr inbounds nuw i8, ptr %0, i64 92
  %12 = load i32, ptr %11, align 4, !tbaa !182
  %13 = icmp slt i32 %12, %10
  br i1 %13, label %14, label %.critedge

14:                                               ; preds = %2
  %15 = load ptr, ptr %0, align 8, !tbaa !86
  %16 = getelementptr inbounds nuw i8, ptr %15, i64 40
  %17 = load ptr, ptr %16, align 8, !tbaa !147
  %.not = icmp eq ptr %17, null
  br i1 %.not, label %.lr.ph, label %18

18:                                               ; preds = %14
  %19 = sext i32 %1 to i64
  %20 = getelementptr inbounds i32, ptr %17, i64 %19
  %21 = load i32, ptr %20, align 4, !tbaa !39
  br label %.lr.ph

.lr.ph:                                           ; preds = %18, %14
  %22 = phi i32 [ %21, %18 ], [ %1, %14 ]
  %23 = getelementptr inbounds nuw i8, ptr %15, i64 32
  %24 = load ptr, ptr %23, align 8, !tbaa !152
  %25 = sext i32 %22 to i64
  %26 = getelementptr inbounds i32, ptr %24, i64 %25
  %27 = load i32, ptr %26, align 4, !tbaa !39
  %28 = sext i32 %12 to i64
  br label %29

29:                                               ; preds = %.lr.ph, %33
  %indvars.iv = phi i64 [ %28, %.lr.ph ], [ %indvars.iv.next, %33 ]
  %30 = getelementptr inbounds i32, ptr %.sroa.0.0.copyload.i.i, i64 %indvars.iv
  %31 = load i32, ptr %30, align 4, !tbaa !39
  %32 = icmp slt i32 %31, %27
  br i1 %32, label %33, label %35

33:                                               ; preds = %29
  %indvars.iv.next = add nsw i64 %indvars.iv, 1
  %34 = trunc i64 %indvars.iv.next to i32
  store i32 %34, ptr %11, align 4, !tbaa !182
  %exitcond.not = icmp eq i32 %34, %10
  br i1 %exitcond.not, label %.critedge, label %29, !llvm.loop !183

35:                                               ; preds = %29
  %sext = shl i64 %indvars.iv, 32
  %36 = ashr exact i64 %sext, 30
  %37 = getelementptr inbounds i8, ptr %.sroa.0.0.copyload.i.i, i64 %36
  %38 = load i32, ptr %37, align 4, !tbaa !39
  %39 = icmp eq i32 %27, %38
  br i1 %39, label %.critedge16, label %.critedge

.critedge16:                                      ; preds = %35
  %40 = trunc nsw i64 %indvars.iv to i32
  %41 = add nsw i32 %40, 1
  store i32 %41, ptr %11, align 4, !tbaa !182
  br label %.critedge

.critedge:                                        ; preds = %33, %2, %35, %.critedge16
  %.1 = phi i1 [ true, %.critedge16 ], [ false, %35 ], [ false, %2 ], [ false, %33 ]
  ret i1 %.1
}